; Function Attrs: mustprogress uwtable
define noundef ptr @_ZNK5faiss20IndexScalarQuantizer29get_FlatCodesDistanceComputerEv(ptr noundef nonnull align 8 dereferenceable(144) %0) unnamed_addr #1 align 2 {
  %2 = getelementptr inbounds i8, ptr %0, i64 72
  %3 = getelementptr inbounds i8, ptr %0, i64 28
  %4 = load i32, ptr %3, align 4
  %5 = tail call noundef ptr @_ZNK5faiss15ScalarQuantizer21get_distance_computerENS_10MetricTypeE(ptr noundef nonnull align 8 dereferenceable(72) %2, i32 noundef %4)
  %6 = getelementptr inbounds i8, ptr %0, i64 88
  %7 = load i64, ptr %6, align 8
  %8 = getelementptr inbounds i8, ptr %5, i64 16
  store i64 %7, ptr %8, align 8
  %9 = getelementptr inbounds i8, ptr %0, i64 48
  %10 = load ptr, ptr %9, align 8
  %11 = getelementptr inbounds i8, ptr %5, i64 8
  store ptr %10, ptr %11, align 8
  ret ptr %5
}